; Function Attrs: mustprogress uwtable
define internal noundef zeroext i1 @"_ZNSt17_Function_handlerIFvPK11AstVarScopeRSt6vectorIP10AstSenTreeSaIS5_EEEZZN7V3Sched8scheduleEP10AstNetlistENK3$_2clERKNSt7__cxx1112basic_stringIcSt11char_traitsIcESaIcEEERKS3_IPNSA_12LogicByScopeESaISN_EEEUlS2_S8_E_E10_M_managerERSt9_Any_dataRKSU_St18_Manager_operation"(ptr nocapture noundef nonnull align 8 dereferenceable(16) %0, ptr nocapture noundef nonnull readonly align 8 dereferenceable(16) %1, i32 noundef %2) #3 align 2 {
  switch i32 %2, label %"_ZNSt14_Function_base13_Base_managerIZZN7V3Sched8scheduleEP10AstNetlistENK3$_2clERKNSt7__cxx1112basic_stringIcSt11char_traitsIcESaIcEEERKSt6vectorIPNS1_12LogicByScopeESaISF_EEEUlPK11AstVarScopeRSD_IP10AstSenTreeSaISO_EEE_E10_M_managerERSt9_Any_dataRKSU_St18_Manager_operation.exit" [
    i32 0, label %4
    i32 1, label %5
    i32 3, label %8
    i32 2, label %6
  ]

4:                                                ; preds = %3
  store ptr @"_ZTIZZN7V3Sched8scheduleEP10AstNetlistENK3$_2clERKNSt7__cxx1112basic_stringIcSt11char_traitsIcESaIcEEERKSt6vectorIPNS_12LogicByScopeESaISD_EEEUlPK11AstVarScopeRSB_IP10AstSenTreeSaISM_EEE_", ptr %0, align 8
  br label %"_ZNSt14_Function_base13_Base_managerIZZN7V3Sched8scheduleEP10AstNetlistENK3$_2clERKNSt7__cxx1112basic_stringIcSt11char_traitsIcESaIcEEERKSt6vectorIPNS1_12LogicByScopeESaISF_EEEUlPK11AstVarScopeRSD_IP10AstSenTreeSaISO_EEE_E10_M_managerERSt9_Any_dataRKSU_St18_Manager_operation.exit"

5:                                                ; preds = %3
  %.val = load ptr, ptr %1, align 8
  store ptr %.val, ptr %0, align 8
  br label %"_ZNSt14_Function_base13_Base_managerIZZN7V3Sched8scheduleEP10AstNetlistENK3$_2clERKNSt7__cxx1112basic_stringIcSt11char_traitsIcESaIcEEERKSt6vectorIPNS1_12LogicByScopeESaISF_EEEUlPK11AstVarScopeRSD_IP10AstSenTreeSaISO_EEE_E10_M_managerERSt9_Any_dataRKSU_St18_Manager_operation.exit"

6:                                                ; preds = %3
  %.val6 = load ptr, ptr %1, align 8
  %7 = tail call noalias noundef nonnull dereferenceable(24) ptr @_Znwm(i64 noundef 24) #26
  tail call void @llvm.memcpy.p0.p0.i64(ptr noundef nonnull align 16 dereferenceable(24) %7, ptr noundef nonnull align 8 dereferenceable(24) %.val6, i64 24, i1 false)
  store ptr %7, ptr %0, align 8
  br label %"_ZNSt14_Function_base13_Base_managerIZZN7V3Sched8scheduleEP10AstNetlistENK3$_2clERKNSt7__cxx1112basic_stringIcSt11char_traitsIcESaIcEEERKSt6vectorIPNS1_12LogicByScopeESaISF_EEEUlPK11AstVarScopeRSD_IP10AstSenTreeSaISO_EEE_E10_M_managerERSt9_Any_dataRKSU_St18_Manager_operation.exit"

8:                                                ; preds = %3
  %.val7.i = load ptr, ptr %0, align 8
  %9 = icmp eq ptr %.val7.i, null
  br i1 %9, label %"_ZNSt14_Function_base13_Base_managerIZZN7V3Sched8scheduleEP10AstNetlistENK3$_2clERKNSt7__cxx1112basic_stringIcSt11char_traitsIcESaIcEEERKSt6vectorIPNS1_12LogicByScopeESaISF_EEEUlPK11AstVarScopeRSD_IP10AstSenTreeSaISO_EEE_E10_M_managerERSt9_Any_dataRKSU_St18_Manager_operation.exit", label %10

10:                                               ; preds = %8
  tail call void @_ZdlPv(ptr noundef nonnull %.val7.i) #27
  br label %"_ZNSt14_Function_base13_Base_managerIZZN7V3Sched8scheduleEP10AstNetlistENK3$_2clERKNSt7__cxx1112basic_stringIcSt11char_traitsIcESaIcEEERKSt6vectorIPNS1_12LogicByScopeESaISF_EEEUlPK11AstVarScopeRSD_IP10AstSenTreeSaISO_EEE_E10_M_managerERSt9_Any_dataRKSU_St18_Manager_operation.exit"

"_ZNSt14_Function_base13_Base_managerIZZN7V3Sched8scheduleEP10AstNetlistENK3$_2clERKNSt7__cxx1112basic_stringIcSt11char_traitsIcESaIcEEERKSt6vectorIPNS1_12LogicByScopeESaISF_EEEUlPK11AstVarScopeRSD_IP10AstSenTreeSaISO_EEE_E10_M_managerERSt9_Any_dataRKSU_St18_Manager_operation.exit": ; preds = %3, %10, %8, %6, %5, %4
  ret i1 false
}